target datalayout = "e-m:e-p270:32:32-p271:32:32-p272:64:64-i64:64-i128:128-f80:128-n8:16:32:64-S128"
target triple = "x86_64-pc-linux-gnu"

%struct.pointf_s = type { double, double }
%struct.GVJ_s = type { ptr, ptr, ptr, ptr, ptr, ptr, i32, ptr, ptr, ptr, ptr, i64, i64, ptr, i32, %struct.gvplugin_active_render_s, %struct.gvplugin_active_device_s, %struct.gvplugin_active_loadimage_t, ptr, %struct.pointf_s, i8, ptr, i32, ptr, i8, ptr, i32, i32, i32, %struct.point, %struct.point, %struct.point, %struct.point, %struct.point, i32, %struct.boxf, %struct.pointf_s, %struct.boxf, %struct.boxf, %struct.pointf_s, %struct.pointf_s, double, i32, %struct.pointf_s, %struct.boxf, %struct.pointf_s, %struct.pointf_s, i32, i32, %struct.box, %struct.box, %struct.pointf_s, %struct.pointf_s, %struct.pointf_s, i8, i8, i8, i8, i8, i8, %struct.pointf_s, %struct.pointf_s, ptr, ptr, ptr, ptr, ptr, ptr, i64, ptr }
%struct.gvplugin_active_render_s = type { ptr, i32, ptr, ptr }
%struct.gvplugin_active_device_s = type { ptr, i32, ptr, ptr }
%struct.gvplugin_active_loadimage_t = type { ptr, i32, ptr }
%struct.point = type { i32, i32 }
%struct.boxf = type { %struct.pointf_s, %struct.pointf_s }
%struct.box = type { %struct.point, %struct.point }
%struct.color_s = type { %union.anon, i32 }
%union.anon = type { [4 x double] }
%struct.obj_state_s = type { ptr, i32, %union.anon.0, i32, %struct.color_s, %struct.color_s, %struct.color_s, i32, double, i32, i32, double, ptr, double, double, double, ptr, ptr, ptr, ptr, ptr, ptr, ptr, ptr, ptr, ptr, ptr, ptr, ptr, ptr, ptr, ptr, ptr, i16, i32, i64, ptr, i64, ptr, ptr, i32, ptr, i32, ptr }
%union.anon.0 = type { ptr }

@.str.14 = private unnamed_addr constant [5 x i8] c"<!--\00", align 1
@.str.15 = private unnamed_addr constant [9 x i8] c" Title: \00", align 1
@.str.16 = private unnamed_addr constant [16 x i8] c" Pages: %d -->\0A\00", align 1
@.str.17 = private unnamed_addr constant [33 x i8] c"<svg width=\22%dpt\22 height=\22%dpt\22\0A\00", align 1
@.str.18 = private unnamed_addr constant [31 x i8] c" viewBox=\22%.2f %.2f %.2f %.2f\22\00", align 1
@.str.19 = private unnamed_addr constant [79 x i8] c" xmlns=\22http://www.w3.org/2000/svg\22 xmlns:xlink=\22http://www.w3.org/1999/xlink\22\00", align 1
@.str.20 = private unnamed_addr constant [3 x i8] c">\0A\00", align 1

; Function Attrs: nounwind uwtable
define internal zeroext i1 @emit_standalone_headers(ptr noundef %0) #0 {
  %2 = alloca ptr, align 8
  store ptr %0, ptr %2, align 8, !tbaa !3
  %3 = load ptr, ptr %2, align 8, !tbaa !3
  %4 = getelementptr inbounds nuw %struct.GVJ_s, ptr %3, i32 0, i32 15
  %5 = getelementptr inbounds nuw %struct.gvplugin_active_render_s, ptr %4, i32 0, i32 1
  %6 = load i32, ptr %5, align 8, !tbaa !119
  %7 = icmp ne i32 %6, 2
  ret i1 %7
}

; Function Attrs: nounwind uwtable
define internal void @svg_begin_graph(ptr noundef %0) #0 {
  %2 = alloca ptr, align 8
  %3 = alloca ptr, align 8
  store ptr %0, ptr %2, align 8, !tbaa !3
  call void @llvm.lifetime.start.p0(i64 8, ptr %3) #9
  %4 = load ptr, ptr %2, align 8, !tbaa !3
  %5 = getelementptr inbounds nuw %struct.GVJ_s, ptr %4, i32 0, i32 4
  %6 = load ptr, ptr %5, align 8, !tbaa !50
  store ptr %6, ptr %3, align 8, !tbaa !51
  %7 = load ptr, ptr %2, align 8, !tbaa !3
  %8 = call i32 @gvputs(ptr noundef %7, ptr noundef @.str.14)
  %9 = load ptr, ptr %3, align 8, !tbaa !51
  %10 = getelementptr inbounds nuw %struct.obj_state_s, ptr %9, i32 0, i32 2
  %11 = load ptr, ptr %10, align 8, !tbaa !47
  %12 = call ptr @agnameof(ptr noundef %11)
  %13 = getelementptr inbounds i8, ptr %12, i64 0
  %14 = load i8, ptr %13, align 1, !tbaa !47
  %15 = sext i8 %14 to i32
  %16 = icmp ne i32 %15, 0
  br i1 %16, label %17, label %35

17:                                               ; preds = %1
  %18 = load ptr, ptr %3, align 8, !tbaa !51
  %19 = getelementptr inbounds nuw %struct.obj_state_s, ptr %18, i32 0, i32 2
  %20 = load ptr, ptr %19, align 8, !tbaa !47
  %21 = call ptr @agnameof(ptr noundef %20)
  %22 = getelementptr inbounds i8, ptr %21, i64 0
  %23 = load i8, ptr %22, align 1, !tbaa !47
  %24 = sext i8 %23 to i32
  %25 = icmp ne i32 %24, 37
  br i1 %25, label %26, label %35

26:                                               ; preds = %17
  %27 = load ptr, ptr %2, align 8, !tbaa !3
  %28 = call i32 @gvputs(ptr noundef %27, ptr noundef @.str.15)
  %29 = load ptr, ptr %2, align 8, !tbaa !3
  %30 = load ptr, ptr %3, align 8, !tbaa !51
  %31 = getelementptr inbounds nuw %struct.obj_state_s, ptr %30, i32 0, i32 2
  %32 = load ptr, ptr %31, align 8, !tbaa !47
  %33 = call ptr @agnameof(ptr noundef %32)
  %34 = call i32 @gvputs_xml(ptr noundef %29, ptr noundef %33)
  br label %35

35:                                               ; preds = %26, %17, %1
  %36 = load ptr, ptr %2, align 8, !tbaa !3
  %37 = load ptr, ptr %2, align 8, !tbaa !3
  %38 = getelementptr inbounds nuw %struct.GVJ_s, ptr %37, i32 0, i32 29
  %39 = getelementptr inbounds nuw %struct.point, ptr %38, i32 0, i32 0
  %40 = load i32, ptr %39, align 4, !tbaa !52
  %41 = load ptr, ptr %2, align 8, !tbaa !3
  %42 = getelementptr inbounds nuw %struct.GVJ_s, ptr %41, i32 0, i32 29
  %43 = getelementptr inbounds nuw %struct.point, ptr %42, i32 0, i32 1
  %44 = load i32, ptr %43, align 4, !tbaa !53
  %45 = mul nsw i32 %40, %44
  call void (ptr, ptr, ...) @gvprintf(ptr noundef %36, ptr noundef @.str.16, i32 noundef %45)
  %46 = load ptr, ptr %2, align 8, !tbaa !3
  %47 = load ptr, ptr %2, align 8, !tbaa !3
  %48 = getelementptr inbounds nuw %struct.GVJ_s, ptr %47, i32 0, i32 47
  %49 = load i32, ptr %48, align 8, !tbaa !54
  %50 = load ptr, ptr %2, align 8, !tbaa !3
  %51 = getelementptr inbounds nuw %struct.GVJ_s, ptr %50, i32 0, i32 48
  %52 = load i32, ptr %51, align 4, !tbaa !55
  call void (ptr, ptr, ...) @gvprintf(ptr noundef %46, ptr noundef @.str.17, i32 noundef %49, i32 noundef %52)
  %53 = load ptr, ptr %2, align 8, !tbaa !3
  %54 = load ptr, ptr %2, align 8, !tbaa !3
  %55 = getelementptr inbounds nuw %struct.GVJ_s, ptr %54, i32 0, i32 44
  %56 = getelementptr inbounds nuw %struct.boxf, ptr %55, i32 0, i32 0
  %57 = getelementptr inbounds nuw %struct.pointf_s, ptr %56, i32 0, i32 0
  %58 = load double, ptr %57, align 8, !tbaa !56
  %59 = load ptr, ptr %2, align 8, !tbaa !3
  %60 = getelementptr inbounds nuw %struct.GVJ_s, ptr %59, i32 0, i32 44
  %61 = getelementptr inbounds nuw %struct.boxf, ptr %60, i32 0, i32 0
  %62 = getelementptr inbounds nuw %struct.pointf_s, ptr %61, i32 0, i32 1
  %63 = load double, ptr %62, align 8, !tbaa !57
  %64 = load ptr, ptr %2, align 8, !tbaa !3
  %65 = getelementptr inbounds nuw %struct.GVJ_s, ptr %64, i32 0, i32 44
  %66 = getelementptr inbounds nuw %struct.boxf, ptr %65, i32 0, i32 1
  %67 = getelementptr inbounds nuw %struct.pointf_s, ptr %66, i32 0, i32 0
  %68 = load double, ptr %67, align 8, !tbaa !58
  %69 = load ptr, ptr %2, align 8, !tbaa !3
  %70 = getelementptr inbounds nuw %struct.GVJ_s, ptr %69, i32 0, i32 44
  %71 = getelementptr inbounds nuw %struct.boxf, ptr %70, i32 0, i32 1
  %72 = getelementptr inbounds nuw %struct.pointf_s, ptr %71, i32 0, i32 1
  %73 = load double, ptr %72, align 8, !tbaa !59
  call void (ptr, ptr, ...) @gvprintf(ptr noundef %53, ptr noundef @.str.18, double noundef %58, double noundef %63, double noundef %68, double noundef %73)
  %74 = load ptr, ptr %2, align 8, !tbaa !3
  %75 = call zeroext i1 @emit_standalone_headers(ptr noundef %74)
  br i1 %75, label %76, label %79

76:                                               ; preds = %35
  %77 = load ptr, ptr %2, align 8, !tbaa !3
  %78 = call i32 @gvputs(ptr noundef %77, ptr noundef @.str.19)
  br label %79

79:                                               ; preds = %76, %35
  %80 = load ptr, ptr %2, align 8, !tbaa !3
  %81 = call i32 @gvputs(ptr noundef %80, ptr noundef @.str.20)
  call void @llvm.lifetime.end.p0(i64 8, ptr %3) #9
  ret void
}