; Function Attrs: nounwind uwtable
define internal void @svg_begin_graph(ptr noundef %0) #0 {
  %2 = getelementptr inbounds nuw i8, ptr %0, i64 32
  %3 = load ptr, ptr %2, align 8, !tbaa !50
  %4 = tail call i32 @gvputs(ptr noundef %0, ptr noundef nonnull @.str.14) #11
  %5 = getelementptr inbounds nuw i8, ptr %3, i64 16
  %6 = load ptr, ptr %5, align 8, !tbaa !46
  %7 = tail call ptr @agnameof(ptr noundef %6) #11
  %8 = load i8, ptr %7, align 1, !tbaa !46
  %.not = icmp eq i8 %8, 0
  br i1 %.not, label %18, label %9

9:                                                ; preds = %1
  %10 = load ptr, ptr %5, align 8, !tbaa !46
  %11 = tail call ptr @agnameof(ptr noundef %10) #11
  %12 = load i8, ptr %11, align 1, !tbaa !46
  %.not21 = icmp eq i8 %12, 37
  br i1 %.not21, label %18, label %13

13:                                               ; preds = %9
  %14 = tail call i32 @gvputs(ptr noundef nonnull %0, ptr noundef nonnull @.str.15) #11
  %15 = load ptr, ptr %5, align 8, !tbaa !46
  %16 = tail call ptr @agnameof(ptr noundef %15) #11
  %17 = tail call i32 @gvputs_xml(ptr noundef nonnull %0, ptr noundef %16) #11
  br label %18

18:                                               ; preds = %13, %9, %1
  %19 = getelementptr inbounds nuw i8, ptr %0, i64 292
  %20 = load i32, ptr %19, align 4, !tbaa !51
  %21 = getelementptr inbounds nuw i8, ptr %0, i64 296
  %22 = load i32, ptr %21, align 4, !tbaa !52
  %23 = mul nsw i32 %22, %20
  tail call void (ptr, ptr, ...) @gvprintf(ptr noundef nonnull %0, ptr noundef nonnull @.str.16, i32 noundef %23) #11
  %24 = getelementptr inbounds nuw i8, ptr %0, i64 576
  %25 = load i32, ptr %24, align 8, !tbaa !53
  %26 = getelementptr inbounds nuw i8, ptr %0, i64 580
  %27 = load i32, ptr %26, align 4, !tbaa !54
  tail call void (ptr, ptr, ...) @gvprintf(ptr noundef nonnull %0, ptr noundef nonnull @.str.17, i32 noundef %25, i32 noundef %27) #11
  %28 = getelementptr inbounds nuw i8, ptr %0, i64 512
  %29 = load double, ptr %28, align 8, !tbaa !55
  %30 = getelementptr inbounds nuw i8, ptr %0, i64 520
  %31 = load double, ptr %30, align 8, !tbaa !56
  %32 = getelementptr inbounds nuw i8, ptr %0, i64 528
  %33 = load double, ptr %32, align 8, !tbaa !57
  %34 = getelementptr inbounds nuw i8, ptr %0, i64 536
  %35 = load double, ptr %34, align 8, !tbaa !58
  tail call void (ptr, ptr, ...) @gvprintf(ptr noundef nonnull %0, ptr noundef nonnull @.str.18, double noundef %29, double noundef %31, double noundef %33, double noundef %35) #11
  %36 = getelementptr i8, ptr %0, i64 128
  %.val = load i32, ptr %36, align 8, !tbaa !3
  %.not22 = icmp eq i32 %.val, 2
  br i1 %.not22, label %39, label %37

37:                                               ; preds = %18
  %38 = tail call i32 @gvputs(ptr noundef nonnull %0, ptr noundef nonnull @.str.19) #11
  br label %39

39:                                               ; preds = %37, %18
  %40 = tail call i32 @gvputs(ptr noundef nonnull %0, ptr noundef nonnull @.str.20) #11
  ret void
}